target datalayout = "e-m:e-p270:32:32-p271:32:32-p272:64:64-i64:64-i128:128-f80:128-n8:16:32:64-S128"
target triple = "x86_64-pc-linux-gnu"

%"struct.p2t::Point" = type { double, double, %"class.std::vector" }
%"class.std::vector" = type { %"struct.std::_Vector_base" }
%"struct.std::_Vector_base" = type { %"struct.std::_Vector_base<p2t::Edge *, std::allocator<p2t::Edge *>>::_Vector_impl" }
%"struct.std::_Vector_base<p2t::Edge *, std::allocator<p2t::Edge *>>::_Vector_impl" = type { %"struct.std::_Vector_base<p2t::Edge *, std::allocator<p2t::Edge *>>::_Vector_impl_data" }
%"struct.std::_Vector_base<p2t::Edge *, std::allocator<p2t::Edge *>>::_Vector_impl_data" = type { ptr, ptr, ptr }
%"struct.p2t::Node" = type { ptr, ptr, ptr, ptr, double }

; Function Attrs: mustprogress nounwind uwtable
define hidden noundef double @_ZNK3p2t5Sweep10BasinAngleERKNS_4NodeE(ptr noundef nonnull align 8 dereferenceable(24) %0, ptr noundef nonnull align 8 dereferenceable(40) %1) #2 align 2 {
  %3 = alloca ptr, align 8
  %4 = alloca ptr, align 8
  %5 = alloca double, align 8
  %6 = alloca double, align 8
  store ptr %0, ptr %3, align 8
  store ptr %1, ptr %4, align 8
  call void @llvm.lifetime.start.p0(i64 8, ptr %5) #14
  %7 = load ptr, ptr %4, align 8
  %8 = getelementptr inbounds nuw %"struct.p2t::Node", ptr %7, i32 0, i32 0
  %9 = load ptr, ptr %8, align 8
  %10 = getelementptr inbounds nuw %"struct.p2t::Point", ptr %9, i32 0, i32 0
  %11 = load double, ptr %10, align 8
  %12 = load ptr, ptr %4, align 8
  %13 = getelementptr inbounds nuw %"struct.p2t::Node", ptr %12, i32 0, i32 2
  %14 = load ptr, ptr %13, align 8
  %15 = getelementptr inbounds nuw %"struct.p2t::Node", ptr %14, i32 0, i32 2
  %16 = load ptr, ptr %15, align 8
  %17 = getelementptr inbounds nuw %"struct.p2t::Node", ptr %16, i32 0, i32 0
  %18 = load ptr, ptr %17, align 8
  %19 = getelementptr inbounds nuw %"struct.p2t::Point", ptr %18, i32 0, i32 0
  %20 = load double, ptr %19, align 8
  %21 = fsub double %11, %20
  store double %21, ptr %5, align 8
  call void @llvm.lifetime.start.p0(i64 8, ptr %6) #14
  %22 = load ptr, ptr %4, align 8
  %23 = getelementptr inbounds nuw %"struct.p2t::Node", ptr %22, i32 0, i32 0
  %24 = load ptr, ptr %23, align 8
  %25 = getelementptr inbounds nuw %"struct.p2t::Point", ptr %24, i32 0, i32 1
  %26 = load double, ptr %25, align 8
  %27 = load ptr, ptr %4, align 8
  %28 = getelementptr inbounds nuw %"struct.p2t::Node", ptr %27, i32 0, i32 2
  %29 = load ptr, ptr %28, align 8
  %30 = getelementptr inbounds nuw %"struct.p2t::Node", ptr %29, i32 0, i32 2
  %31 = load ptr, ptr %30, align 8
  %32 = getelementptr inbounds nuw %"struct.p2t::Node", ptr %31, i32 0, i32 0
  %33 = load ptr, ptr %32, align 8
  %34 = getelementptr inbounds nuw %"struct.p2t::Point", ptr %33, i32 0, i32 1
  %35 = load double, ptr %34, align 8
  %36 = fsub double %26, %35
  store double %36, ptr %6, align 8
  %37 = load double, ptr %6, align 8
  %38 = load double, ptr %5, align 8
  %39 = call double @atan2(double noundef %37, double noundef %38) #14
  call void @llvm.lifetime.end.p0(i64 8, ptr %6) #14
  call void @llvm.lifetime.end.p0(i64 8, ptr %5) #14
  ret double %39
}

; Function Attrs: mustprogress uwtable
define hidden void @_ZN3p2t5Sweep18FillAdvancingFrontERNS_12SweepContextERNS_4NodeE(ptr noundef nonnull align 8 dereferenceable(24) %0, ptr noundef nonnull align 8 dereferenceable(200) %1, ptr noundef nonnull align 8 dereferenceable(40) %2) #0 align 2 {
  %4 = alloca ptr, align 8
  %5 = alloca ptr, align 8
  %6 = alloca ptr, align 8
  %7 = alloca ptr, align 8
  %8 = alloca double, align 8
  store ptr %0, ptr %4, align 8
  store ptr %1, ptr %5, align 8
  store ptr %2, ptr %6, align 8
  %9 = load ptr, ptr %4, align 8
  call void @llvm.lifetime.start.p0(i64 8, ptr %7) #14
  %10 = load ptr, ptr %6, align 8
  %11 = getelementptr inbounds nuw %"struct.p2t::Node", ptr %10, i32 0, i32 2
  %12 = load ptr, ptr %11, align 8
  store ptr %12, ptr %7, align 8
  br label %13

13:                                               ; preds = %27, %3
  %14 = load ptr, ptr %7, align 8
  %15 = icmp ne ptr %14, null
  br i1 %15, label %16, label %21

16:                                               ; preds = %13
  %17 = load ptr, ptr %7, align 8
  %18 = getelementptr inbounds nuw %"struct.p2t::Node", ptr %17, i32 0, i32 2
  %19 = load ptr, ptr %18, align 8
  %20 = icmp ne ptr %19, null
  br label %21

21:                                               ; preds = %16, %13
  %22 = phi i1 [ false, %13 ], [ %20, %16 ]
  br i1 %22, label %23, label %33

23:                                               ; preds = %21
  %24 = load ptr, ptr %7, align 8
  %25 = call noundef zeroext i1 @_ZNK3p2t5Sweep18LargeHole_DontFillEPKNS_4NodeE(ptr noundef nonnull align 8 dereferenceable(24) %9, ptr noundef %24)
  br i1 %25, label %26, label %27

26:                                               ; preds = %23
  br label %33

27:                                               ; preds = %23
  %28 = load ptr, ptr %5, align 8
  %29 = load ptr, ptr %7, align 8
  call void @_ZN3p2t5Sweep4FillERNS_12SweepContextERNS_4NodeE(ptr noundef nonnull align 8 dereferenceable(24) %9, ptr noundef nonnull align 8 dereferenceable(200) %28, ptr noundef nonnull align 8 dereferenceable(40) %29)
  %30 = load ptr, ptr %7, align 8
  %31 = getelementptr inbounds nuw %"struct.p2t::Node", ptr %30, i32 0, i32 2
  %32 = load ptr, ptr %31, align 8
  store ptr %32, ptr %7, align 8
  br label %13, !llvm.loop !6

33:                                               ; preds = %26, %21
  %34 = load ptr, ptr %6, align 8
  %35 = getelementptr inbounds nuw %"struct.p2t::Node", ptr %34, i32 0, i32 3
  %36 = load ptr, ptr %35, align 8
  store ptr %36, ptr %7, align 8
  br label %37

37:                                               ; preds = %51, %33
  %38 = load ptr, ptr %7, align 8
  %39 = icmp ne ptr %38, null
  br i1 %39, label %40, label %45

40:                                               ; preds = %37
  %41 = load ptr, ptr %7, align 8
  %42 = getelementptr inbounds nuw %"struct.p2t::Node", ptr %41, i32 0, i32 3
  %43 = load ptr, ptr %42, align 8
  %44 = icmp ne ptr %43, null
  br label %45

45:                                               ; preds = %40, %37
  %46 = phi i1 [ false, %37 ], [ %44, %40 ]
  br i1 %46, label %47, label %57

47:                                               ; preds = %45
  %48 = load ptr, ptr %7, align 8
  %49 = call noundef zeroext i1 @_ZNK3p2t5Sweep18LargeHole_DontFillEPKNS_4NodeE(ptr noundef nonnull align 8 dereferenceable(24) %9, ptr noundef %48)
  br i1 %49, label %50, label %51

50:                                               ; preds = %47
  br label %57

51:                                               ; preds = %47
  %52 = load ptr, ptr %5, align 8
  %53 = load ptr, ptr %7, align 8
  call void @_ZN3p2t5Sweep4FillERNS_12SweepContextERNS_4NodeE(ptr noundef nonnull align 8 dereferenceable(24) %9, ptr noundef nonnull align 8 dereferenceable(200) %52, ptr noundef nonnull align 8 dereferenceable(40) %53)
  %54 = load ptr, ptr %7, align 8
  %55 = getelementptr inbounds nuw %"struct.p2t::Node", ptr %54, i32 0, i32 3
  %56 = load ptr, ptr %55, align 8
  store ptr %56, ptr %7, align 8
  br label %37, !llvm.loop !7

57:                                               ; preds = %50, %45
  %58 = load ptr, ptr %6, align 8
  %59 = getelementptr inbounds nuw %"struct.p2t::Node", ptr %58, i32 0, i32 2
  %60 = load ptr, ptr %59, align 8
  %61 = icmp ne ptr %60, null
  br i1 %61, label %62, label %78

62:                                               ; preds = %57
  %63 = load ptr, ptr %6, align 8
  %64 = getelementptr inbounds nuw %"struct.p2t::Node", ptr %63, i32 0, i32 2
  %65 = load ptr, ptr %64, align 8
  %66 = getelementptr inbounds nuw %"struct.p2t::Node", ptr %65, i32 0, i32 2
  %67 = load ptr, ptr %66, align 8
  %68 = icmp ne ptr %67, null
  br i1 %68, label %69, label %78

69:                                               ; preds = %62
  call void @llvm.lifetime.start.p0(i64 8, ptr %8) #14
  %70 = load ptr, ptr %6, align 8
  %71 = call noundef double @_ZNK3p2t5Sweep10BasinAngleERKNS_4NodeE(ptr noundef nonnull align 8 dereferenceable(24) %9, ptr noundef nonnull align 8 dereferenceable(40) %70)
  store double %71, ptr %8, align 8
  %72 = load double, ptr %8, align 8
  %73 = fcmp olt double %72, 0x4002D97C7F3321D2
  br i1 %73, label %74, label %77

74:                                               ; preds = %69
  %75 = load ptr, ptr %5, align 8
  %76 = load ptr, ptr %6, align 8
  call void @_ZN3p2t5Sweep9FillBasinERNS_12SweepContextERNS_4NodeE(ptr noundef nonnull align 8 dereferenceable(24) %9, ptr noundef nonnull align 8 dereferenceable(200) %75, ptr noundef nonnull align 8 dereferenceable(40) %76)
  br label %77

77:                                               ; preds = %74, %69
  call void @llvm.lifetime.end.p0(i64 8, ptr %8) #14
  br label %78

78:                                               ; preds = %77, %62, %57
  call void @llvm.lifetime.end.p0(i64 8, ptr %7) #14
  ret void
}