; Function Attrs: mustprogress uwtable
define hidden void @_ZN3p2t5Sweep18FillAdvancingFrontERNS_12SweepContextERNS_4NodeE(ptr noundef nonnull align 8 dereferenceable(24) %0, ptr noundef nonnull align 8 dereferenceable(200) %1, ptr noundef nonnull readonly align 8 captures(none) dereferenceable(40) %2) local_unnamed_addr #2 align 2 {
  %4 = getelementptr inbounds nuw i8, ptr %2, i64 16
  %.029 = load ptr, ptr %4, align 8
  %.not30 = icmp eq ptr %.029, null
  br i1 %.not30, label %.critedge, label %.lr.ph

.lr.ph:                                           ; preds = %3, %9
  %.031 = phi ptr [ %.0, %9 ], [ %.029, %3 ]
  %5 = getelementptr inbounds nuw i8, ptr %.031, i64 16
  %6 = load ptr, ptr %5, align 8
  %.not24 = icmp eq ptr %6, null
  br i1 %.not24, label %.critedge, label %7

7:                                                ; preds = %.lr.ph
  %8 = tail call noundef zeroext i1 @_ZNK3p2t5Sweep18LargeHole_DontFillEPKNS_4NodeE(ptr nonnull align 8 poison, ptr noundef nonnull %.031)
  br i1 %8, label %.critedge, label %9

9:                                                ; preds = %7
  tail call void @_ZN3p2t5Sweep4FillERNS_12SweepContextERNS_4NodeE(ptr noundef nonnull align 8 dereferenceable(24) %0, ptr noundef nonnull align 8 dereferenceable(200) %1, ptr noundef nonnull align 8 dereferenceable(40) %.031)
  %.0 = load ptr, ptr %5, align 8
  %.not = icmp eq ptr %.0, null
  br i1 %.not, label %.critedge, label %.lr.ph, !llvm.loop !10

.critedge:                                        ; preds = %.lr.ph, %7, %9, %3
  %10 = getelementptr inbounds nuw i8, ptr %2, i64 24
  %.134 = load ptr, ptr %10, align 8
  %.not2535 = icmp eq ptr %.134, null
  br i1 %.not2535, label %.critedge2, label %.lr.ph37

.lr.ph37:                                         ; preds = %.critedge, %15
  %.136 = phi ptr [ %.1, %15 ], [ %.134, %.critedge ]
  %11 = getelementptr inbounds nuw i8, ptr %.136, i64 24
  %12 = load ptr, ptr %11, align 8
  %.not26 = icmp eq ptr %12, null
  br i1 %.not26, label %.critedge2, label %13

13:                                               ; preds = %.lr.ph37
  %14 = tail call noundef zeroext i1 @_ZNK3p2t5Sweep18LargeHole_DontFillEPKNS_4NodeE(ptr nonnull align 8 poison, ptr noundef nonnull %.136)
  br i1 %14, label %.critedge2, label %15

15:                                               ; preds = %13
  tail call void @_ZN3p2t5Sweep4FillERNS_12SweepContextERNS_4NodeE(ptr noundef nonnull align 8 dereferenceable(24) %0, ptr noundef nonnull align 8 dereferenceable(200) %1, ptr noundef nonnull align 8 dereferenceable(40) %.136)
  %.1 = load ptr, ptr %11, align 8
  %.not25 = icmp eq ptr %.1, null
  br i1 %.not25, label %.critedge2, label %.lr.ph37, !llvm.loop !11

.critedge2:                                       ; preds = %.lr.ph37, %13, %15, %.critedge
  %16 = load ptr, ptr %4, align 8
  %.not27 = icmp eq ptr %16, null
  br i1 %.not27, label %34, label %17

17:                                               ; preds = %.critedge2
  %18 = getelementptr inbounds nuw i8, ptr %16, i64 16
  %19 = load ptr, ptr %18, align 8
  %.not28 = icmp eq ptr %19, null
  br i1 %.not28, label %34, label %20

20:                                               ; preds = %17
  %21 = load ptr, ptr %2, align 8
  %22 = load double, ptr %21, align 8
  %23 = load ptr, ptr %19, align 8
  %24 = load double, ptr %23, align 8
  %25 = fsub double %22, %24
  %26 = getelementptr inbounds nuw i8, ptr %21, i64 8
  %27 = load double, ptr %26, align 8
  %28 = getelementptr inbounds nuw i8, ptr %23, i64 8
  %29 = load double, ptr %28, align 8
  %30 = fsub double %27, %29
  %31 = tail call noundef double @atan2(double noundef %30, double noundef %25) #20
  %32 = fcmp olt double %31, 0x4002D97C7F3321D2
  br i1 %32, label %33, label %34

33:                                               ; preds = %20
  tail call void @_ZN3p2t5Sweep9FillBasinERNS_12SweepContextERNS_4NodeE(ptr noundef nonnull align 8 dereferenceable(24) %0, ptr noundef nonnull align 8 dereferenceable(200) %1, ptr noundef nonnull align 8 dereferenceable(40) %2)
  br label %34

34:                                               ; preds = %20, %33, %17, %.critedge2
  ret void
}